target datalayout = "e-m:e-p270:32:32-p271:32:32-p272:64:64-i64:64-i128:128-f80:128-n8:16:32:64-S128"
target triple = "x86_64-pc-linux-gnu"

%struct.col_custom_t = type { ptr, ptr, i32 }

; Function Attrs: nounwind uwtable
define internal void @col_custom_free_cb(ptr noundef %0) #0 {
  %2 = alloca ptr, align 8
  %3 = alloca ptr, align 8
  store ptr %0, ptr %2, align 8
  %4 = load ptr, ptr %2, align 8
  store ptr %4, ptr %3, align 8
  %5 = load ptr, ptr %3, align 8
  %6 = getelementptr inbounds %struct.col_custom_t, ptr %5, i32 0, i32 1
  %7 = load ptr, ptr %6, align 8
  call void @dfilter_free(ptr noundef %7)
  %8 = load ptr, ptr %3, align 8
  %9 = getelementptr inbounds %struct.col_custom_t, ptr %8, i32 0, i32 0
  %10 = load ptr, ptr %9, align 8
  call void @g_free(ptr noundef %10)
  %11 = load ptr, ptr %3, align 8
  call void @g_free(ptr noundef %11)
  ret void
}