; Function Attrs: nounwind uwtable
define internal void @col_custom_free_cb(ptr noundef %0) #0 {
  %2 = getelementptr inbounds nuw i8, ptr %0, i64 8
  %3 = load ptr, ptr %2, align 8
  tail call void @dfilter_free(ptr noundef %3) #16
  %4 = load ptr, ptr %0, align 8
  tail call void @g_free(ptr noundef %4) #16
  tail call void @g_free(ptr noundef nonnull %0) #16
  ret void
}